target datalayout = "e-m:e-p270:32:32-p271:32:32-p272:64:64-i64:64-i128:128-f80:128-n8:16:32:64-S128"
target triple = "x86_64-pc-linux-gnu"

%struct.mbedtls_asn1_sequence = type { %struct.mbedtls_asn1_buf, ptr }
%struct.mbedtls_asn1_buf = type { i32, i64, ptr }
%struct.asn1_get_sequence_of_cb_ctx_t = type { i32, ptr }

; Function Attrs: nounwind uwtable
define internal i32 @asn1_get_sequence_of_cb(ptr noundef %0, i32 noundef %1, ptr noundef %2, i64 noundef %3) #0 {
  %5 = alloca i32, align 4
  %6 = alloca ptr, align 8
  %7 = alloca i32, align 4
  %8 = alloca ptr, align 8
  %9 = alloca i64, align 8
  %10 = alloca ptr, align 8
  %11 = alloca ptr, align 8
  %12 = alloca i32, align 4
  store ptr %0, ptr %6, align 8, !tbaa !32
  store i32 %1, ptr %7, align 4, !tbaa !16
  store ptr %2, ptr %8, align 8, !tbaa !9
  store i64 %3, ptr %9, align 8, !tbaa !14
  call void @llvm.lifetime.start.p0(i64 8, ptr %10) #7
  %13 = load ptr, ptr %6, align 8, !tbaa !32
  store ptr %13, ptr %10, align 8, !tbaa !32
  call void @llvm.lifetime.start.p0(i64 8, ptr %11) #7
  %14 = load ptr, ptr %10, align 8, !tbaa !32
  %15 = getelementptr inbounds nuw %struct.asn1_get_sequence_of_cb_ctx_t, ptr %14, i32 0, i32 1
  %16 = load ptr, ptr %15, align 8, !tbaa !42
  store ptr %16, ptr %11, align 8, !tbaa !34
  %17 = load ptr, ptr %11, align 8, !tbaa !34
  %18 = getelementptr inbounds nuw %struct.mbedtls_asn1_sequence, ptr %17, i32 0, i32 0
  %19 = getelementptr inbounds nuw %struct.mbedtls_asn1_buf, ptr %18, i32 0, i32 2
  %20 = load ptr, ptr %19, align 8, !tbaa !43
  %21 = icmp ne ptr %20, null
  br i1 %21, label %22, label %35

22:                                               ; preds = %4
  %23 = call noalias ptr @calloc(i64 noundef 1, i64 noundef 32) #8
  %24 = load ptr, ptr %11, align 8, !tbaa !34
  %25 = getelementptr inbounds nuw %struct.mbedtls_asn1_sequence, ptr %24, i32 0, i32 1
  store ptr %23, ptr %25, align 8, !tbaa !36
  %26 = load ptr, ptr %11, align 8, !tbaa !34
  %27 = getelementptr inbounds nuw %struct.mbedtls_asn1_sequence, ptr %26, i32 0, i32 1
  %28 = load ptr, ptr %27, align 8, !tbaa !36
  %29 = icmp eq ptr %28, null
  br i1 %29, label %30, label %31

30:                                               ; preds = %22
  store i32 -106, ptr %5, align 4
  store i32 1, ptr %12, align 4
  br label %51

31:                                               ; preds = %22
  %32 = load ptr, ptr %11, align 8, !tbaa !34
  %33 = getelementptr inbounds nuw %struct.mbedtls_asn1_sequence, ptr %32, i32 0, i32 1
  %34 = load ptr, ptr %33, align 8, !tbaa !36
  store ptr %34, ptr %11, align 8, !tbaa !34
  br label %35

35:                                               ; preds = %31, %4
  %36 = load ptr, ptr %8, align 8, !tbaa !9
  %37 = load ptr, ptr %11, align 8, !tbaa !34
  %38 = getelementptr inbounds nuw %struct.mbedtls_asn1_sequence, ptr %37, i32 0, i32 0
  %39 = getelementptr inbounds nuw %struct.mbedtls_asn1_buf, ptr %38, i32 0, i32 2
  store ptr %36, ptr %39, align 8, !tbaa !43
  %40 = load i64, ptr %9, align 8, !tbaa !14
  %41 = load ptr, ptr %11, align 8, !tbaa !34
  %42 = getelementptr inbounds nuw %struct.mbedtls_asn1_sequence, ptr %41, i32 0, i32 0
  %43 = getelementptr inbounds nuw %struct.mbedtls_asn1_buf, ptr %42, i32 0, i32 1
  store i64 %40, ptr %43, align 8, !tbaa !44
  %44 = load i32, ptr %7, align 4, !tbaa !16
  %45 = load ptr, ptr %11, align 8, !tbaa !34
  %46 = getelementptr inbounds nuw %struct.mbedtls_asn1_sequence, ptr %45, i32 0, i32 0
  %47 = getelementptr inbounds nuw %struct.mbedtls_asn1_buf, ptr %46, i32 0, i32 0
  store i32 %44, ptr %47, align 8, !tbaa !45
  %48 = load ptr, ptr %11, align 8, !tbaa !34
  %49 = load ptr, ptr %10, align 8, !tbaa !32
  %50 = getelementptr inbounds nuw %struct.asn1_get_sequence_of_cb_ctx_t, ptr %49, i32 0, i32 1
  store ptr %48, ptr %50, align 8, !tbaa !42
  store i32 0, ptr %5, align 4
  store i32 1, ptr %12, align 4
  br label %51

51:                                               ; preds = %35, %30
  call void @llvm.lifetime.end.p0(i64 8, ptr %11) #7
  call void @llvm.lifetime.end.p0(i64 8, ptr %10) #7
  %52 = load i32, ptr %5, align 4
  ret i32 %52
}